; Function Attrs: mustprogress uwtable
define noundef nonnull ptr @_ZNK7rocksdb22BlockBasedTableFactory15NewTableBuilderERKNS_19TableBuilderOptionsEPNS_18WritableFileWriterE(ptr noundef nonnull align 8 dereferenceable(608) %this, ptr noundef nonnull align 8 dereferenceable(176) %table_builder_options, ptr noundef %file) unnamed_addr #2 align 2 personality ptr @__gxx_personality_v0 {
entry:
  %call = tail call noalias noundef nonnull dereferenceable(24) ptr @_Znwm(i64 noundef 24) #24
  %table_options_ = getelementptr inbounds i8, ptr %this, i64 32
  invoke void @_ZN7rocksdb22BlockBasedTableBuilderC1ERKNS_22BlockBasedTableOptionsERKNS_19TableBuilderOptionsEPNS_18WritableFileWriterE(ptr noundef nonnull align 8 dereferenceable(24) %call, ptr noundef nonnull align 8 dereferenceable(248) %table_options_, ptr noundef nonnull align 8 dereferenceable(176) %table_builder_options, ptr noundef %file)
          to label %invoke.cont unwind label %lpad

invoke.cont:                                      ; preds = %entry
  ret ptr %call

lpad:                                             ; preds = %entry
  %0 = landingpad { ptr, i32 }
          cleanup
  tail call void @_ZdlPv(ptr noundef nonnull %call) #21
  resume { ptr, i32 } %0
}